; Function Attrs: mustprogress nofree norecurse nosync nounwind memory(readwrite, inaccessiblemem: none) uwtable
define void @_ZN6icu_7715MeasureUnitImpl14takeReciprocalER10UErrorCode(ptr noundef nonnull align 8 captures(none) dereferenceable(168) initializes((152, 156)) %0, ptr noundef nonnull readnone align 4 captures(none) dereferenceable(4) %1) local_unnamed_addr #11 align 2 {
  %3 = getelementptr inbounds nuw i8, ptr %0, i64 96
  %4 = getelementptr inbounds nuw i8, ptr %0, i64 152
  store i32 0, ptr %4, align 8, !tbaa !15
  %5 = load ptr, ptr %3, align 8, !tbaa !3
  store i8 0, ptr %5, align 1, !tbaa !17
  %6 = getelementptr inbounds nuw i8, ptr %0, i64 8
  %7 = load i32, ptr %6, align 8, !tbaa !28
  %8 = icmp sgt i32 %7, 0
  br i1 %8, label %.lr.ph, label %._crit_edge

.lr.ph:                                           ; preds = %2
  %9 = getelementptr inbounds nuw i8, ptr %0, i64 16
  %10 = load ptr, ptr %9, align 8, !tbaa !33
  %wide.trip.count = zext nneg i32 %7 to i64
  br label %11

._crit_edge:                                      ; preds = %11, %2
  ret void

11:                                               ; preds = %.lr.ph, %11
  %indvars.iv = phi i64 [ 0, %.lr.ph ], [ %indvars.iv.next, %11 ]
  %12 = getelementptr inbounds nuw ptr, ptr %10, i64 %indvars.iv
  %13 = load ptr, ptr %12, align 8, !tbaa !34
  %14 = getelementptr inbounds nuw i8, ptr %13, i64 8
  %15 = load i32, ptr %14, align 4, !tbaa !36
  %16 = sub nsw i32 0, %15
  store i32 %16, ptr %14, align 4, !tbaa !36
  %indvars.iv.next = add nuw nsw i64 %indvars.iv, 1
  %exitcond.not = icmp eq i64 %indvars.iv.next, %wide.trip.count
  br i1 %exitcond.not, label %._crit_edge, label %11, !llvm.loop !39
}